; ModuleID = 'source-C-CXX/29/633.c'
source_filename = "source-C-CXX/29/633.c"
target datalayout = "e-m:e-p270:32:32-p271:32:32-p272:64:64-i64:64-f80:128-n8:16:32:64-S128"
target triple = "x86_64-pc-linux-gnu"

@.str = private unnamed_addr constant [3 x i8] c"%d\00", align 1

; Function Attrs: nofree nounwind sspstrong uwtable
define dso_local i32 @main() local_unnamed_addr #0 {
  %1 = alloca i32, align 4
  %2 = bitcast i32* %1 to i8*
  call void @llvm.lifetime.start.p0i8(i64 4, i8* nonnull %2) #3
  %3 = call i32 (i8*, ...) @__isoc99_scanf(i8* getelementptr inbounds ([3 x i8], [3 x i8]* @.str, i64 0, i64 0), i32* nonnull %1)
  %4 = load i32, i32* %1, align 4, !tbaa !5
  %5 = icmp slt i32 %4, 1
  br i1 %5, label %37, label %6

6:                                                ; preds = %0, %33
  %7 = phi i32 [ %34, %33 ], [ 0, %0 ]
  %8 = phi i32 [ %35, %33 ], [ 1, %0 ]
  %9 = icmp ult i32 %8, 70
  br i1 %9, label %10, label %21

10:                                               ; preds = %6
  %11 = trunc i32 %8 to i8
  %12 = add nsw i8 %11, -7
  %13 = srem i8 %12, 10
  %14 = icmp eq i8 %13, 0
  %15 = urem i8 %11, 7
  %16 = icmp eq i8 %15, 0
  %17 = select i1 %14, i1 true, i1 %16
  br i1 %17, label %33, label %18

18:                                               ; preds = %10
  %19 = mul nuw nsw i32 %8, %8
  %20 = add nsw i32 %7, %19
  br label %33

21:                                               ; preds = %6
  %22 = icmp ugt i32 %8, 79
  br i1 %22, label %23, label %33

23:                                               ; preds = %21
  %24 = add nsw i32 %8, -7
  %25 = srem i32 %24, 10
  %26 = icmp eq i32 %25, 0
  %27 = urem i32 %8, 7
  %28 = icmp eq i32 %27, 0
  %29 = select i1 %26, i1 true, i1 %28
  br i1 %29, label %33, label %30

30:                                               ; preds = %23
  %31 = mul nsw i32 %8, %8
  %32 = add nsw i32 %7, %31
  br label %33

33:                                               ; preds = %10, %21, %23, %30, %18
  %34 = phi i32 [ %20, %18 ], [ %32, %30 ], [ %7, %23 ], [ %7, %21 ], [ %7, %10 ]
  %35 = add nuw i32 %8, 1
  %36 = icmp eq i32 %8, %4
  br i1 %36, label %37, label %6, !llvm.loop !9

37:                                               ; preds = %33, %0
  %38 = phi i32 [ 0, %0 ], [ %34, %33 ]
  %39 = call i32 (i8*, ...) @printf(i8* nonnull dereferenceable(1) getelementptr inbounds ([3 x i8], [3 x i8]* @.str, i64 0, i64 0), i32 %38)
  call void @llvm.lifetime.end.p0i8(i64 4, i8* nonnull %2) #3
  ret i32 0
}

; Function Attrs: argmemonly mustprogress nofree nosync nounwind willreturn
declare void @llvm.lifetime.start.p0i8(i64 immarg, i8* nocapture) #1

; Function Attrs: nofree nounwind
declare noundef i32 @__isoc99_scanf(i8* nocapture noundef readonly, ...) local_unnamed_addr #2

; Function Attrs: nofree nounwind
declare noundef i32 @printf(i8* nocapture noundef readonly, ...) local_unnamed_addr #2

; Function Attrs: argmemonly mustprogress nofree nosync nounwind willreturn
declare void @llvm.lifetime.end.p0i8(i64 immarg, i8* nocapture) #1


!llvm.module.flags = !{!0, !1, !2, !3}
!llvm.ident = !{!4}

!0 = !{i32 1, !"wchar_size", i32 4}
!1 = !{i32 7, !"PIC Level", i32 2}
!2 = !{i32 7, !"PIE Level", i32 2}
!3 = !{i32 7, !"uwtable", i32 1}
!4 = !{!"clang version 13.0.0"}
!5 = !{!6, !6, i64 0}
!6 = !{!"int", !7, i64 0}
!7 = !{!"omnipotent char", !8, i64 0}
!8 = !{!"Simple C/C++ TBAA"}
!9 = distinct !{!9, !10}
!10 = !{!"llvm.loop.mustprogress"}
